target datalayout = "e-m:e-p270:32:32-p271:32:32-p272:64:64-i64:64-i128:128-f80:128-n8:16:32:64-S128"
target triple = "x86_64-pc-linux-gnu"

%struct.ev_token_bucket_cfg = type { i64, i64, i64, i64, %struct.timeval, i32 }
%struct.timeval = type { i64, i64 }

; Function Attrs: nounwind uwtable
define hidden i32 @ev_token_bucket_get_tick_(ptr noundef %0, ptr noundef %1) #0 {
  %3 = alloca ptr, align 8
  %4 = alloca ptr, align 8
  %5 = alloca i64, align 8
  store ptr %0, ptr %3, align 8
  store ptr %1, ptr %4, align 8
  call void @llvm.lifetime.start.p0(i64 8, ptr %5) #5
  %6 = load ptr, ptr %3, align 8
  %7 = getelementptr inbounds nuw %struct.timeval, ptr %6, i32 0, i32 0
  %8 = load i64, ptr %7, align 8
  %9 = mul i64 %8, 1000
  %10 = load ptr, ptr %3, align 8
  %11 = getelementptr inbounds nuw %struct.timeval, ptr %10, i32 0, i32 1
  %12 = load i64, ptr %11, align 8
  %13 = sdiv i64 %12, 1000
  %14 = add i64 %9, %13
  store i64 %14, ptr %5, align 8
  %15 = load i64, ptr %5, align 8
  %16 = load ptr, ptr %4, align 8
  %17 = getelementptr inbounds nuw %struct.ev_token_bucket_cfg, ptr %16, i32 0, i32 5
  %18 = load i32, ptr %17, align 8
  %19 = zext i32 %18 to i64
  %20 = udiv i64 %15, %19
  %21 = trunc i64 %20 to i32
  call void @llvm.lifetime.end.p0(i64 8, ptr %5) #5
  ret i32 %21
}