; Function Attrs: mustprogress nofree norecurse nosync nounwind willreturn memory(argmem: read) uwtable
define hidden i32 @ev_token_bucket_get_tick_(ptr noundef readonly captures(none) %0, ptr noundef readonly captures(none) %1) local_unnamed_addr #2 {
  %3 = load i64, ptr %0, align 8
  %4 = mul i64 %3, 1000
  %5 = getelementptr inbounds nuw i8, ptr %0, i64 8
  %6 = load i64, ptr %5, align 8
  %7 = sdiv i64 %6, 1000
  %8 = add i64 %7, %4
  %9 = getelementptr inbounds nuw i8, ptr %1, i64 48
  %10 = load i32, ptr %9, align 8
  %11 = zext i32 %10 to i64
  %12 = udiv i64 %8, %11
  %13 = trunc i64 %12 to i32
  ret i32 %13
}